target datalayout = "e-m:e-p270:32:32-p271:32:32-p272:64:64-i64:64-i128:128-f80:128-n8:16:32:64-S128"
target triple = "x86_64-pc-linux-gnu"

@.str.2 = private unnamed_addr constant [43 x i8] c"value \22%s\22 is out of range for type double\00", align 1
@.str.3 = private unnamed_addr constant [43 x i8] c"invalid input syntax for type double: \22%s\22\00", align 1

; Function Attrs: nounwind uwtable
define dso_local zeroext i1 @strtodouble(ptr noundef %0, i1 noundef zeroext %1, ptr noundef %2) #0 {
  %4 = alloca i1, align 1
  %5 = alloca ptr, align 8
  %6 = alloca i8, align 1
  %7 = alloca ptr, align 8
  %8 = alloca ptr, align 8
  %9 = alloca i32, align 4
  store ptr %0, ptr %5, align 8
  %10 = zext i1 %1 to i8
  store i8 %10, ptr %6, align 1
  store ptr %2, ptr %7, align 8
  call void @llvm.lifetime.start.p0(i64 8, ptr %8) #14
  %11 = call ptr @__errno_location() #15
  store i32 0, ptr %11, align 4
  %12 = load ptr, ptr %5, align 8
  %13 = call double @strtod(ptr noundef %12, ptr noundef %8) #14
  %14 = load ptr, ptr %7, align 8
  store double %13, ptr %14, align 8
  %15 = call ptr @__errno_location() #15
  %16 = load i32, ptr %15, align 4
  %17 = icmp ne i32 %16, 0
  %18 = zext i1 %17 to i32
  %19 = icmp ne i32 %18, 0
  %20 = zext i1 %19 to i32
  %21 = sext i32 %20 to i64
  %22 = call i64 @llvm.expect.i64(i64 %21, i64 0)
  %23 = icmp ne i64 %22, 0
  br i1 %23, label %24, label %30

24:                                               ; preds = %3
  %25 = load i8, ptr %6, align 1, !range !8, !noundef !9
  %26 = trunc i8 %25 to i1
  br i1 %26, label %29, label %27

27:                                               ; preds = %24
  %28 = load ptr, ptr %5, align 8
  call void (i32, i32, ptr, ...) @pg_log_generic(i32 noundef 4, i32 noundef 0, ptr noundef @.str.2, ptr noundef %28)
  br label %29

29:                                               ; preds = %27, %24
  store i1 false, ptr %4, align 1
  store i32 1, ptr %9, align 4
  br label %54

30:                                               ; preds = %3
  %31 = load ptr, ptr %8, align 8
  %32 = load ptr, ptr %5, align 8
  %33 = icmp eq ptr %31, %32
  br i1 %33, label %39, label %34

34:                                               ; preds = %30
  %35 = load ptr, ptr %8, align 8
  %36 = load i8, ptr %35, align 1
  %37 = sext i8 %36 to i32
  %38 = icmp ne i32 %37, 0
  br label %39

39:                                               ; preds = %34, %30
  %40 = phi i1 [ true, %30 ], [ %38, %34 ]
  %41 = zext i1 %40 to i32
  %42 = icmp ne i32 %41, 0
  %43 = zext i1 %42 to i32
  %44 = sext i32 %43 to i64
  %45 = call i64 @llvm.expect.i64(i64 %44, i64 0)
  %46 = icmp ne i64 %45, 0
  br i1 %46, label %47, label %53

47:                                               ; preds = %39
  %48 = load i8, ptr %6, align 1, !range !8, !noundef !9
  %49 = trunc i8 %48 to i1
  br i1 %49, label %52, label %50

50:                                               ; preds = %47
  %51 = load ptr, ptr %5, align 8
  call void (i32, i32, ptr, ...) @pg_log_generic(i32 noundef 4, i32 noundef 0, ptr noundef @.str.3, ptr noundef %51)
  br label %52

52:                                               ; preds = %50, %47
  store i1 false, ptr %4, align 1
  store i32 1, ptr %9, align 4
  br label %54

53:                                               ; preds = %39
  store i1 true, ptr %4, align 1
  store i32 1, ptr %9, align 4
  br label %54

54:                                               ; preds = %53, %52, %29
  call void @llvm.lifetime.end.p0(i64 8, ptr %8) #14
  %55 = load i1, ptr %4, align 1
  ret i1 %55
}