; Function Attrs: nounwind uwtable
define dso_local noundef zeroext i1 @strtodouble(ptr noundef %0, i1 noundef zeroext %1, ptr noundef writeonly captures(none) initializes((0, 8)) %2) local_unnamed_addr #0 {
  %4 = alloca ptr, align 8
  call void @llvm.lifetime.start.p0(i64 8, ptr nonnull %4) #25
  %5 = tail call ptr @__errno_location() #24
  store i32 0, ptr %5, align 4
  %6 = call double @strtod(ptr noundef %0, ptr noundef nonnull %4) #25
  store double %6, ptr %2, align 8
  %7 = load i32, ptr %5, align 4
  %.not = icmp eq i32 %7, 0
  br i1 %.not, label %9, label %8, !prof !8

8:                                                ; preds = %3
  br i1 %1, label %14, label %.sink.split

9:                                                ; preds = %3
  %10 = load ptr, ptr %4, align 8
  %11 = icmp eq ptr %10, %0
  br i1 %11, label %.critedge, label %12

12:                                               ; preds = %9
  %13 = load i8, ptr %10, align 1
  %.not8 = icmp eq i8 %13, 0
  br i1 %.not8, label %14, label %.critedge, !prof !8

.critedge:                                        ; preds = %9, %12
  br i1 %1, label %14, label %.sink.split

.sink.split:                                      ; preds = %.critedge, %8
  %.str.3.sink = phi ptr [ @.str.2, %8 ], [ @.str.3, %.critedge ]
  tail call void (i32, i32, ptr, ...) @pg_log_generic(i32 noundef 4, i32 noundef 0, ptr noundef nonnull %.str.3.sink, ptr noundef %0) #25
  br label %14

14:                                               ; preds = %.sink.split, %12, %.critedge, %8
  %.0 = phi i1 [ false, %8 ], [ false, %.critedge ], [ true, %12 ], [ false, %.sink.split ]
  call void @llvm.lifetime.end.p0(i64 8, ptr nonnull %4) #25
  ret i1 %.0
}